target datalayout = "e-m:e-p270:32:32-p271:32:32-p272:64:64-i64:64-i128:128-f80:128-n8:16:32:64-S128"
target triple = "x86_64-pc-linux-gnu"

; Function Attrs: nounwind uwtable
define void @my_dcopy(i32 noundef %0, i32 noundef %1, double noundef %2, ptr noundef %3, i32 noundef %4, ptr noundef %5, i32 noundef %6) #0 {
  %8 = alloca i32, align 4
  %9 = alloca i32, align 4
  %10 = alloca double, align 8
  %11 = alloca ptr, align 8
  %12 = alloca i32, align 4
  %13 = alloca ptr, align 8
  %14 = alloca i32, align 4
  %15 = alloca i32, align 4
  %16 = alloca i32, align 4
  store i32 %0, ptr %8, align 4, !tbaa !8
  store i32 %1, ptr %9, align 4, !tbaa !8
  store double %2, ptr %10, align 8, !tbaa !16
  store ptr %3, ptr %11, align 8, !tbaa !14
  store i32 %4, ptr %12, align 4, !tbaa !8
  store ptr %5, ptr %13, align 8, !tbaa !14
  store i32 %6, ptr %14, align 4, !tbaa !8
  call void @llvm.lifetime.start.p0(i64 4, ptr %15) #5
  call void @llvm.lifetime.start.p0(i64 4, ptr %16) #5
  store i32 0, ptr %15, align 4, !tbaa !8
  br label %17

17:                                               ; preds = %50, %7
  %18 = load i32, ptr %15, align 4, !tbaa !8
  %19 = load i32, ptr %8, align 4, !tbaa !8
  %20 = icmp ne i32 %18, %19
  br i1 %20, label %21, label %53

21:                                               ; preds = %17
  store i32 0, ptr %16, align 4, !tbaa !8
  br label %22

22:                                               ; preds = %46, %21
  %23 = load i32, ptr %16, align 4, !tbaa !8
  %24 = load i32, ptr %9, align 4, !tbaa !8
  %25 = icmp ne i32 %23, %24
  br i1 %25, label %26, label %49

26:                                               ; preds = %22
  %27 = load double, ptr %10, align 8, !tbaa !16
  %28 = load ptr, ptr %11, align 8, !tbaa !14
  %29 = load i32, ptr %15, align 4, !tbaa !8
  %30 = load i32, ptr %12, align 4, !tbaa !8
  %31 = mul nsw i32 %29, %30
  %32 = load i32, ptr %16, align 4, !tbaa !8
  %33 = add nsw i32 %31, %32
  %34 = sext i32 %33 to i64
  %35 = getelementptr inbounds double, ptr %28, i64 %34
  %36 = load double, ptr %35, align 8, !tbaa !16
  %37 = fmul double %27, %36
  %38 = load ptr, ptr %13, align 8, !tbaa !14
  %39 = load i32, ptr %15, align 4, !tbaa !8
  %40 = load i32, ptr %14, align 4, !tbaa !8
  %41 = mul nsw i32 %39, %40
  %42 = load i32, ptr %16, align 4, !tbaa !8
  %43 = add nsw i32 %41, %42
  %44 = sext i32 %43 to i64
  %45 = getelementptr inbounds double, ptr %38, i64 %44
  store double %37, ptr %45, align 8, !tbaa !16
  br label %46

46:                                               ; preds = %26
  %47 = load i32, ptr %16, align 4, !tbaa !8
  %48 = add nsw i32 %47, 1
  store i32 %48, ptr %16, align 4, !tbaa !8
  br label %22, !llvm.loop !35

49:                                               ; preds = %22
  br label %50

50:                                               ; preds = %49
  %51 = load i32, ptr %15, align 4, !tbaa !8
  %52 = add nsw i32 %51, 1
  store i32 %52, ptr %15, align 4, !tbaa !8
  br label %17, !llvm.loop !36

53:                                               ; preds = %17
  call void @llvm.lifetime.end.p0(i64 4, ptr %16) #5
  call void @llvm.lifetime.end.p0(i64 4, ptr %15) #5
  ret void
}